target datalayout = "e-m:e-p270:32:32-p271:32:32-p272:64:64-i64:64-i128:128-f80:128-n8:16:32:64-S128"
target triple = "x86_64-pc-linux-gnu"

%struct.jpeg_decompress_struct = type { ptr, ptr, ptr, ptr, i32, i32, ptr, i32, i32, i32, i32, i32, i32, i32, double, i32, i32, i32, i32, i32, i32, i32, i32, i32, i32, i32, i32, i32, i32, i32, i32, i32, i32, ptr, i32, i32, i32, i32, i32, ptr, [4 x ptr], [4 x ptr], [4 x ptr], i32, ptr, i32, i32, [16 x i8], [16 x i8], [16 x i8], i32, i32, i8, i8, i8, i16, i16, i32, i8, i32, ptr, i32, i32, i32, i32, ptr, i32, [4 x ptr], i32, i32, i32, [10 x i32], i32, i32, i32, i32, i32, ptr, ptr, ptr, ptr, ptr, ptr, ptr, ptr, ptr, ptr, ptr }
%struct.jpeg_compress_struct = type { ptr, ptr, ptr, ptr, i32, i32, ptr, i32, i32, i32, i32, double, i32, i32, i32, ptr, [4 x ptr], [4 x ptr], [4 x ptr], [16 x i8], [16 x i8], [16 x i8], i32, ptr, i32, i32, i32, i32, i32, i32, i32, i32, i32, i8, i8, i8, i16, i16, i32, i32, i32, i32, i32, i32, i32, [4 x ptr], i32, i32, i32, [10 x i32], i32, i32, i32, i32, ptr, ptr, ptr, ptr, ptr, ptr, ptr, ptr, ptr, ptr, i32 }
%struct.jpeg_marker_struct = type { ptr, i8, i32, i32, ptr }

; Function Attrs: nounwind uwtable
define dso_local void @jcopy_markers_execute(ptr noundef %0, ptr noundef %1, i32 noundef %2) #0 {
  %4 = alloca ptr, align 8
  %5 = alloca ptr, align 8
  %6 = alloca i32, align 4
  %7 = alloca ptr, align 8
  store ptr %0, ptr %4, align 8, !tbaa !31
  store ptr %1, ptr %5, align 8, !tbaa !97
  store i32 %2, ptr %6, align 4, !tbaa !28
  call void @llvm.lifetime.start.p0(i64 8, ptr %7) #6
  %8 = load ptr, ptr %4, align 8, !tbaa !31
  %9 = getelementptr inbounds nuw %struct.jpeg_decompress_struct, ptr %8, i32 0, i32 60
  %10 = load ptr, ptr %9, align 8, !tbaa !118
  store ptr %10, ptr %7, align 8, !tbaa !255
  br label %11

11:                                               ; preds = %180, %3
  %12 = load ptr, ptr %7, align 8, !tbaa !255
  %13 = icmp ne ptr %12, null
  br i1 %13, label %14, label %184

14:                                               ; preds = %11
  %15 = load i32, ptr %6, align 4, !tbaa !28
  %16 = icmp eq i32 %15, 0
  br i1 %16, label %17, label %18

17:                                               ; preds = %14
  br label %180

18:                                               ; preds = %14
  %19 = load i32, ptr %6, align 4, !tbaa !28
  %20 = icmp eq i32 %19, 1
  br i1 %20, label %21, label %29

21:                                               ; preds = %18
  %22 = load ptr, ptr %7, align 8, !tbaa !255
  %23 = getelementptr inbounds nuw %struct.jpeg_marker_struct, ptr %22, i32 0, i32 1
  %24 = load i8, ptr %23, align 8, !tbaa !119
  %25 = zext i8 %24 to i32
  %26 = icmp ne i32 %25, 254
  br i1 %26, label %27, label %28

27:                                               ; preds = %21
  br label %180

28:                                               ; preds = %21
  br label %53

29:                                               ; preds = %18
  %30 = load i32, ptr %6, align 4, !tbaa !28
  %31 = icmp eq i32 %30, 3
  br i1 %31, label %32, label %40

32:                                               ; preds = %29
  %33 = load ptr, ptr %7, align 8, !tbaa !255
  %34 = getelementptr inbounds nuw %struct.jpeg_marker_struct, ptr %33, i32 0, i32 1
  %35 = load i8, ptr %34, align 8, !tbaa !119
  %36 = zext i8 %35 to i32
  %37 = icmp eq i32 %36, 226
  br i1 %37, label %38, label %39

38:                                               ; preds = %32
  br label %180

39:                                               ; preds = %32
  br label %52

40:                                               ; preds = %29
  %41 = load i32, ptr %6, align 4, !tbaa !28
  %42 = icmp eq i32 %41, 4
  br i1 %42, label %43, label %51

43:                                               ; preds = %40
  %44 = load ptr, ptr %7, align 8, !tbaa !255
  %45 = getelementptr inbounds nuw %struct.jpeg_marker_struct, ptr %44, i32 0, i32 1
  %46 = load i8, ptr %45, align 8, !tbaa !119
  %47 = zext i8 %46 to i32
  %48 = icmp ne i32 %47, 226
  br i1 %48, label %49, label %50

49:                                               ; preds = %43
  br label %180

50:                                               ; preds = %43
  br label %51

51:                                               ; preds = %50, %40
  br label %52

52:                                               ; preds = %51, %39
  br label %53

53:                                               ; preds = %52, %28
  br label %54

54:                                               ; preds = %53
  %55 = load ptr, ptr %5, align 8, !tbaa !97
  %56 = getelementptr inbounds nuw %struct.jpeg_compress_struct, ptr %55, i32 0, i32 32
  %57 = load i32, ptr %56, align 8, !tbaa !123
  %58 = icmp ne i32 %57, 0
  br i1 %58, label %59, label %111

59:                                               ; preds = %54
  %60 = load ptr, ptr %7, align 8, !tbaa !255
  %61 = getelementptr inbounds nuw %struct.jpeg_marker_struct, ptr %60, i32 0, i32 1
  %62 = load i8, ptr %61, align 8, !tbaa !119
  %63 = zext i8 %62 to i32
  %64 = icmp eq i32 %63, 224
  br i1 %64, label %65, label %111

65:                                               ; preds = %59
  %66 = load ptr, ptr %7, align 8, !tbaa !255
  %67 = getelementptr inbounds nuw %struct.jpeg_marker_struct, ptr %66, i32 0, i32 3
  %68 = load i32, ptr %67, align 8, !tbaa !121
  %69 = icmp uge i32 %68, 5
  br i1 %69, label %70, label %111

70:                                               ; preds = %65
  %71 = load ptr, ptr %7, align 8, !tbaa !255
  %72 = getelementptr inbounds nuw %struct.jpeg_marker_struct, ptr %71, i32 0, i32 4
  %73 = load ptr, ptr %72, align 8, !tbaa !122
  %74 = getelementptr inbounds i8, ptr %73, i64 0
  %75 = load i8, ptr %74, align 1, !tbaa !21
  %76 = zext i8 %75 to i32
  %77 = icmp eq i32 %76, 74
  br i1 %77, label %78, label %111

78:                                               ; preds = %70
  %79 = load ptr, ptr %7, align 8, !tbaa !255
  %80 = getelementptr inbounds nuw %struct.jpeg_marker_struct, ptr %79, i32 0, i32 4
  %81 = load ptr, ptr %80, align 8, !tbaa !122
  %82 = getelementptr inbounds i8, ptr %81, i64 1
  %83 = load i8, ptr %82, align 1, !tbaa !21
  %84 = zext i8 %83 to i32
  %85 = icmp eq i32 %84, 70
  br i1 %85, label %86, label %111

86:                                               ; preds = %78
  %87 = load ptr, ptr %7, align 8, !tbaa !255
  %88 = getelementptr inbounds nuw %struct.jpeg_marker_struct, ptr %87, i32 0, i32 4
  %89 = load ptr, ptr %88, align 8, !tbaa !122
  %90 = getelementptr inbounds i8, ptr %89, i64 2
  %91 = load i8, ptr %90, align 1, !tbaa !21
  %92 = zext i8 %91 to i32
  %93 = icmp eq i32 %92, 73
  br i1 %93, label %94, label %111

94:                                               ; preds = %86
  %95 = load ptr, ptr %7, align 8, !tbaa !255
  %96 = getelementptr inbounds nuw %struct.jpeg_marker_struct, ptr %95, i32 0, i32 4
  %97 = load ptr, ptr %96, align 8, !tbaa !122
  %98 = getelementptr inbounds i8, ptr %97, i64 3
  %99 = load i8, ptr %98, align 1, !tbaa !21
  %100 = zext i8 %99 to i32
  %101 = icmp eq i32 %100, 70
  br i1 %101, label %102, label %111

102:                                              ; preds = %94
  %103 = load ptr, ptr %7, align 8, !tbaa !255
  %104 = getelementptr inbounds nuw %struct.jpeg_marker_struct, ptr %103, i32 0, i32 4
  %105 = load ptr, ptr %104, align 8, !tbaa !122
  %106 = getelementptr inbounds i8, ptr %105, i64 4
  %107 = load i8, ptr %106, align 1, !tbaa !21
  %108 = zext i8 %107 to i32
  %109 = icmp eq i32 %108, 0
  br i1 %109, label %110, label %111

110:                                              ; preds = %102
  br label %180

111:                                              ; preds = %102, %94, %86, %78, %70, %65, %59, %54
  %112 = load ptr, ptr %5, align 8, !tbaa !97
  %113 = getelementptr inbounds nuw %struct.jpeg_compress_struct, ptr %112, i32 0, i32 38
  %114 = load i32, ptr %113, align 4, !tbaa !256
  %115 = icmp ne i32 %114, 0
  br i1 %115, label %116, label %168

116:                                              ; preds = %111
  %117 = load ptr, ptr %7, align 8, !tbaa !255
  %118 = getelementptr inbounds nuw %struct.jpeg_marker_struct, ptr %117, i32 0, i32 1
  %119 = load i8, ptr %118, align 8, !tbaa !119
  %120 = zext i8 %119 to i32
  %121 = icmp eq i32 %120, 238
  br i1 %121, label %122, label %168

122:                                              ; preds = %116
  %123 = load ptr, ptr %7, align 8, !tbaa !255
  %124 = getelementptr inbounds nuw %struct.jpeg_marker_struct, ptr %123, i32 0, i32 3
  %125 = load i32, ptr %124, align 8, !tbaa !121
  %126 = icmp uge i32 %125, 5
  br i1 %126, label %127, label %168

127:                                              ; preds = %122
  %128 = load ptr, ptr %7, align 8, !tbaa !255
  %129 = getelementptr inbounds nuw %struct.jpeg_marker_struct, ptr %128, i32 0, i32 4
  %130 = load ptr, ptr %129, align 8, !tbaa !122
  %131 = getelementptr inbounds i8, ptr %130, i64 0
  %132 = load i8, ptr %131, align 1, !tbaa !21
  %133 = zext i8 %132 to i32
  %134 = icmp eq i32 %133, 65
  br i1 %134, label %135, label %168

135:                                              ; preds = %127
  %136 = load ptr, ptr %7, align 8, !tbaa !255
  %137 = getelementptr inbounds nuw %struct.jpeg_marker_struct, ptr %136, i32 0, i32 4
  %138 = load ptr, ptr %137, align 8, !tbaa !122
  %139 = getelementptr inbounds i8, ptr %138, i64 1
  %140 = load i8, ptr %139, align 1, !tbaa !21
  %141 = zext i8 %140 to i32
  %142 = icmp eq i32 %141, 100
  br i1 %142, label %143, label %168

143:                                              ; preds = %135
  %144 = load ptr, ptr %7, align 8, !tbaa !255
  %145 = getelementptr inbounds nuw %struct.jpeg_marker_struct, ptr %144, i32 0, i32 4
  %146 = load ptr, ptr %145, align 8, !tbaa !122
  %147 = getelementptr inbounds i8, ptr %146, i64 2
  %148 = load i8, ptr %147, align 1, !tbaa !21
  %149 = zext i8 %148 to i32
  %150 = icmp eq i32 %149, 111
  br i1 %150, label %151, label %168

151:                                              ; preds = %143
  %152 = load ptr, ptr %7, align 8, !tbaa !255
  %153 = getelementptr inbounds nuw %struct.jpeg_marker_struct, ptr %152, i32 0, i32 4
  %154 = load ptr, ptr %153, align 8, !tbaa !122
  %155 = getelementptr inbounds i8, ptr %154, i64 3
  %156 = load i8, ptr %155, align 1, !tbaa !21
  %157 = zext i8 %156 to i32
  %158 = icmp eq i32 %157, 98
  br i1 %158, label %159, label %168

159:                                              ; preds = %151
  %160 = load ptr, ptr %7, align 8, !tbaa !255
  %161 = getelementptr inbounds nuw %struct.jpeg_marker_struct, ptr %160, i32 0, i32 4
  %162 = load ptr, ptr %161, align 8, !tbaa !122
  %163 = getelementptr inbounds i8, ptr %162, i64 4
  %164 = load i8, ptr %163, align 1, !tbaa !21
  %165 = zext i8 %164 to i32
  %166 = icmp eq i32 %165, 101
  br i1 %166, label %167, label %168

167:                                              ; preds = %159
  br label %180

168:                                              ; preds = %159, %151, %143, %135, %127, %122, %116, %111
  %169 = load ptr, ptr %5, align 8, !tbaa !97
  %170 = load ptr, ptr %7, align 8, !tbaa !255
  %171 = getelementptr inbounds nuw %struct.jpeg_marker_struct, ptr %170, i32 0, i32 1
  %172 = load i8, ptr %171, align 8, !tbaa !119
  %173 = zext i8 %172 to i32
  %174 = load ptr, ptr %7, align 8, !tbaa !255
  %175 = getelementptr inbounds nuw %struct.jpeg_marker_struct, ptr %174, i32 0, i32 4
  %176 = load ptr, ptr %175, align 8, !tbaa !122
  %177 = load ptr, ptr %7, align 8, !tbaa !255
  %178 = getelementptr inbounds nuw %struct.jpeg_marker_struct, ptr %177, i32 0, i32 3
  %179 = load i32, ptr %178, align 8, !tbaa !121
  call void @jpeg_write_marker(ptr noundef %169, i32 noundef %173, ptr noundef %176, i32 noundef %179)
  br label %180

180:                                              ; preds = %168, %167, %110, %49, %38, %27, %17
  %181 = load ptr, ptr %7, align 8, !tbaa !255
  %182 = getelementptr inbounds nuw %struct.jpeg_marker_struct, ptr %181, i32 0, i32 0
  %183 = load ptr, ptr %182, align 8, !tbaa !257
  store ptr %183, ptr %7, align 8, !tbaa !255
  br label %11, !llvm.loop !258

184:                                              ; preds = %11
  call void @llvm.lifetime.end.p0(i64 8, ptr %7) #6
  ret void
}