; Function Attrs: nounwind uwtable
define dso_local void @jcopy_markers_execute(ptr noundef readonly captures(none) %0, ptr noundef %1, i32 noundef %2) local_unnamed_addr #2 {
  %4 = getelementptr inbounds nuw i8, ptr %0, i64 400
  %.034 = load ptr, ptr %4, align 8, !tbaa !255
  %.not35 = icmp eq ptr %.034, null
  br i1 %.not35, label %._crit_edge, label %.lr.ph

.lr.ph:                                           ; preds = %3
  %5 = getelementptr inbounds nuw i8, ptr %1, i64 288
  %6 = getelementptr inbounds nuw i8, ptr %1, i64 300
  br label %7

7:                                                ; preds = %.lr.ph, %83
  %.036 = phi ptr [ %.034, %.lr.ph ], [ %.0, %83 ]
  switch i32 %2, label %18 [
    i32 0, label %83
    i32 1, label %8
    i32 3, label %11
    i32 4, label %15
  ]

8:                                                ; preds = %7
  %9 = getelementptr inbounds nuw i8, ptr %.036, i64 8
  %10 = load i8, ptr %9, align 8, !tbaa !132
  %.not31 = icmp eq i8 %10, -2
  br i1 %.not31, label %18, label %83

11:                                               ; preds = %7
  %12 = getelementptr inbounds nuw i8, ptr %.036, i64 8
  %13 = load i8, ptr %12, align 8, !tbaa !132
  %14 = icmp eq i8 %13, -30
  br i1 %14, label %83, label %18

15:                                               ; preds = %7
  %16 = getelementptr inbounds nuw i8, ptr %.036, i64 8
  %17 = load i8, ptr %16, align 8, !tbaa !132
  %.not30 = icmp eq i8 %17, -30
  br i1 %.not30, label %18, label %83

18:                                               ; preds = %7, %8, %15, %11
  %19 = load i32, ptr %5, align 8, !tbaa !136
  %.not32 = icmp eq i32 %19, 0
  br i1 %.not32, label %49, label %20

20:                                               ; preds = %18
  %21 = getelementptr inbounds nuw i8, ptr %.036, i64 8
  %22 = load i8, ptr %21, align 8, !tbaa !132
  %23 = icmp eq i8 %22, -32
  br i1 %23, label %24, label %49

24:                                               ; preds = %20
  %25 = getelementptr inbounds nuw i8, ptr %.036, i64 16
  %26 = load i32, ptr %25, align 8, !tbaa !134
  %27 = icmp ugt i32 %26, 4
  br i1 %27, label %28, label %49

28:                                               ; preds = %24
  %29 = getelementptr inbounds nuw i8, ptr %.036, i64 24
  %30 = load ptr, ptr %29, align 8, !tbaa !135
  %31 = load i8, ptr %30, align 1, !tbaa !18
  %32 = icmp eq i8 %31, 74
  br i1 %32, label %33, label %49

33:                                               ; preds = %28
  %34 = getelementptr inbounds nuw i8, ptr %30, i64 1
  %35 = load i8, ptr %34, align 1, !tbaa !18
  %36 = icmp eq i8 %35, 70
  br i1 %36, label %37, label %49

37:                                               ; preds = %33
  %38 = getelementptr inbounds nuw i8, ptr %30, i64 2
  %39 = load i8, ptr %38, align 1, !tbaa !18
  %40 = icmp eq i8 %39, 73
  br i1 %40, label %41, label %49

41:                                               ; preds = %37
  %42 = getelementptr inbounds nuw i8, ptr %30, i64 3
  %43 = load i8, ptr %42, align 1, !tbaa !18
  %44 = icmp eq i8 %43, 70
  br i1 %44, label %45, label %49

45:                                               ; preds = %41
  %46 = getelementptr inbounds nuw i8, ptr %30, i64 4
  %47 = load i8, ptr %46, align 1, !tbaa !18
  %48 = icmp eq i8 %47, 0
  br i1 %48, label %83, label %49

49:                                               ; preds = %45, %41, %37, %33, %28, %24, %20, %18
  %50 = load i32, ptr %6, align 4, !tbaa !256
  %.not33 = icmp ne i32 %50, 0
  %.phi.trans.insert = getelementptr inbounds nuw i8, ptr %.036, i64 8
  %.pre = load i8, ptr %.phi.trans.insert, align 8, !tbaa !132
  %51 = icmp eq i8 %.pre, -18
  %or.cond = select i1 %.not33, i1 %51, i1 false
  br i1 %or.cond, label %52, label %._crit_edge37

52:                                               ; preds = %49
  %53 = getelementptr inbounds nuw i8, ptr %.036, i64 16
  %54 = load i32, ptr %53, align 8, !tbaa !134
  %55 = icmp ugt i32 %54, 4
  br i1 %55, label %56, label %._crit_edge37

56:                                               ; preds = %52
  %57 = getelementptr inbounds nuw i8, ptr %.036, i64 24
  %58 = load ptr, ptr %57, align 8, !tbaa !135
  %59 = load i8, ptr %58, align 1, !tbaa !18
  %60 = icmp eq i8 %59, 65
  br i1 %60, label %61, label %._crit_edge37

61:                                               ; preds = %56
  %62 = getelementptr inbounds nuw i8, ptr %58, i64 1
  %63 = load i8, ptr %62, align 1, !tbaa !18
  %64 = icmp eq i8 %63, 100
  br i1 %64, label %65, label %._crit_edge37

65:                                               ; preds = %61
  %66 = getelementptr inbounds nuw i8, ptr %58, i64 2
  %67 = load i8, ptr %66, align 1, !tbaa !18
  %68 = icmp eq i8 %67, 111
  br i1 %68, label %69, label %._crit_edge37

69:                                               ; preds = %65
  %70 = getelementptr inbounds nuw i8, ptr %58, i64 3
  %71 = load i8, ptr %70, align 1, !tbaa !18
  %72 = icmp eq i8 %71, 98
  br i1 %72, label %73, label %._crit_edge37

73:                                               ; preds = %69
  %74 = getelementptr inbounds nuw i8, ptr %58, i64 4
  %75 = load i8, ptr %74, align 1, !tbaa !18
  %76 = icmp eq i8 %75, 101
  br i1 %76, label %83, label %._crit_edge37

._crit_edge37:                                    ; preds = %49, %73, %69, %65, %61, %56, %52
  %77 = phi i8 [ -18, %73 ], [ -18, %69 ], [ -18, %65 ], [ -18, %61 ], [ -18, %56 ], [ -18, %52 ], [ %.pre, %49 ]
  %78 = zext i8 %77 to i32
  %79 = getelementptr inbounds nuw i8, ptr %.036, i64 24
  %80 = load ptr, ptr %79, align 8, !tbaa !135
  %81 = getelementptr inbounds nuw i8, ptr %.036, i64 16
  %82 = load i32, ptr %81, align 8, !tbaa !134
  tail call void @jpeg_write_marker(ptr noundef nonnull %1, i32 noundef %78, ptr noundef %80, i32 noundef %82) #8
  br label %83

83:                                               ; preds = %7, %73, %45, %15, %11, %8, %._crit_edge37
  %.0 = load ptr, ptr %.036, align 8, !tbaa !255
  %.not = icmp eq ptr %.0, null
  br i1 %.not, label %._crit_edge, label %7, !llvm.loop !257

._crit_edge:                                      ; preds = %83, %3
  ret void
}